; ModuleID = '45/1713.c'
source_filename = "45/1713.c"
target datalayout = "e-m:e-p270:32:32-p271:32:32-p272:64:64-i64:64-f80:128-n8:16:32:64-S128"
target triple = "x86_64-pc-linux-gnu"

@.str = private unnamed_addr constant [3 x i8] c"%s\00", align 1
@.str.1 = private unnamed_addr constant [4 x i8] c"%d\0A\00", align 1

; Function Attrs: noinline nounwind uwtable
define dso_local i32 @main() #0 {
  %1 = alloca i32, align 4
  %2 = alloca [50 x i8], align 16
  %3 = alloca [50 x i8], align 16
  %4 = alloca i32, align 4
  %5 = alloca i32, align 4
  %6 = alloca i32, align 4
  %7 = alloca i32, align 4
  %8 = alloca i32, align 4
  store i32 0, i32* %1, align 4
  %9 = getelementptr inbounds [50 x i8], [50 x i8]* %2, i64 0, i64 0
  %10 = call i32 (i8*, ...) @__isoc99_scanf(i8* getelementptr inbounds ([3 x i8], [3 x i8]* @.str, i64 0, i64 0), i8* %9)
  %11 = getelementptr inbounds [50 x i8], [50 x i8]* %3, i64 0, i64 0
  %12 = call i32 (i8*, ...) @__isoc99_scanf(i8* getelementptr inbounds ([3 x i8], [3 x i8]* @.str, i64 0, i64 0), i8* %11)
  %13 = getelementptr inbounds [50 x i8], [50 x i8]* %2, i64 0, i64 0
  %14 = call i64 @strlen(i8* %13) #3
  %15 = trunc i64 %14 to i32
  store i32 %15, i32* %4, align 4
  %16 = getelementptr inbounds [50 x i8], [50 x i8]* %3, i64 0, i64 0
  %17 = call i64 @strlen(i8* %16) #3
  %18 = trunc i64 %17 to i32
  store i32 %18, i32* %5, align 4
  store i32 1, i32* %8, align 4
  store i32 0, i32* %6, align 4
  br label %19

19:                                               ; preds = %68, %0
  %20 = load i32, i32* %6, align 4
  %21 = icmp slt i32 %20, 50
  br i1 %21, label %22, label %71

22:                                               ; preds = %19
  store i32 0, i32* %7, align 4
  br label %23

23:                                               ; preds = %58, %22
  %24 = load i32, i32* %7, align 4
  %25 = load i32, i32* %4, align 4
  %26 = icmp slt i32 %24, %25
  br i1 %26, label %27, label %61

27:                                               ; preds = %23
  %28 = load i32, i32* %6, align 4
  %29 = load i32, i32* %7, align 4
  %30 = add nsw i32 %28, %29
  %31 = sext i32 %30 to i64
  %32 = getelementptr inbounds [50 x i8], [50 x i8]* %3, i64 0, i64 %31
  %33 = load i8, i8* %32, align 1
  %34 = sext i8 %33 to i32
  %35 = load i32, i32* %7, align 4
  %36 = sext i32 %35 to i64
  %37 = getelementptr inbounds [50 x i8], [50 x i8]* %2, i64 0, i64 %36
  %38 = load i8, i8* %37, align 1
  %39 = sext i8 %38 to i32
  %40 = icmp ne i32 %34, %39
  br i1 %40, label %41, label %42

41:                                               ; preds = %27
  store i32 0, i32* %8, align 4
  br label %61

42:                                               ; preds = %27
  %43 = load i32, i32* %6, align 4
  %44 = load i32, i32* %7, align 4
  %45 = add nsw i32 %43, %44
  %46 = sext i32 %45 to i64
  %47 = getelementptr inbounds [50 x i8], [50 x i8]* %3, i64 0, i64 %46
  %48 = load i8, i8* %47, align 1
  %49 = sext i8 %48 to i32
  %50 = load i32, i32* %7, align 4
  %51 = sext i32 %50 to i64
  %52 = getelementptr inbounds [50 x i8], [50 x i8]* %2, i64 0, i64 %51
  %53 = load i8, i8* %52, align 1
  %54 = sext i8 %53 to i32
  %55 = icmp eq i32 %49, %54
  br i1 %55, label %56, label %57

56:                                               ; preds = %42
  store i32 1, i32* %8, align 4
  br label %58

57:                                               ; preds = %42
  br label %58

58:                                               ; preds = %57, %56
  %59 = load i32, i32* %7, align 4
  %60 = add nsw i32 %59, 1
  store i32 %60, i32* %7, align 4
  br label %23

61:                                               ; preds = %41, %23
  %62 = load i32, i32* %8, align 4
  %63 = icmp eq i32 %62, 1
  br i1 %63, label %64, label %67

64:                                               ; preds = %61
  %65 = load i32, i32* %6, align 4
  %66 = call i32 (i8*, ...) @printf(i8* getelementptr inbounds ([4 x i8], [4 x i8]* @.str.1, i64 0, i64 0), i32 %65)
  br label %71

67:                                               ; preds = %61
  br label %68

68:                                               ; preds = %67
  %69 = load i32, i32* %6, align 4
  %70 = add nsw i32 %69, 1
  store i32 %70, i32* %6, align 4
  br label %19

71:                                               ; preds = %64, %19
  ret i32 0
}

declare dso_local i32 @__isoc99_scanf(i8*, ...) #1

; Function Attrs: nounwind readonly
declare dso_local i64 @strlen(i8*) #2

declare dso_local i32 @printf(i8*, ...) #1


!llvm.module.flags = !{!0}
!llvm.ident = !{!1}

!0 = !{i32 1, !"wchar_size", i32 4}
!1 = !{!"clang version 10.0.0-4ubuntu1 "}
